target datalayout = "e-m:e-p270:32:32-p271:32:32-p272:64:64-i64:64-i128:128-f80:128-n8:16:32:64-S128"
target triple = "x86_64-unknown-linux-gnu"

%struct.dh_st = type { ptr, ptr, ptr, ptr, i32, %union.crypto_mutex_st, ptr, ptr, ptr, ptr, i32, ptr, i32, i32, %struct.crypto_ex_data_st }
%union.crypto_mutex_st = type { double, [48 x i8] }
%struct.crypto_ex_data_st = type { ptr }
%struct.bignum_st = type { ptr, i32, i32, i32, i32 }

@.str = private unnamed_addr constant [118 x i8] c"generated/home/dtcxzyw/WorkSpace/Projects/compilers/llvm-opt-benchmark/bench/libquic/libquic/boringssl/crypto/dh/dh.c\00", align 1

; Function Attrs: nounwind uwtable
define hidden i32 @DH_generate_key(ptr noundef %dh) #0 {
entry:
  %dh.addr = alloca ptr, align 8
  %ok = alloca i32, align 4
  %generate_new_key = alloca i32, align 4
  %l = alloca i32, align 4
  %ctx = alloca ptr, align 8
  %pub_key = alloca ptr, align 8
  %priv_key = alloca ptr, align 8
  %local_priv = alloca %struct.bignum_st, align 8
  store ptr %dh, ptr %dh.addr, align 8
  store i32 0, ptr %ok, align 4
  store i32 0, ptr %generate_new_key, align 4
  store ptr null, ptr %ctx, align 8
  store ptr null, ptr %pub_key, align 8
  store ptr null, ptr %priv_key, align 8
  %0 = load ptr, ptr %dh.addr, align 8
  %p = getelementptr inbounds %struct.dh_st, ptr %0, i32 0, i32 0
  %1 = load ptr, ptr %p, align 8
  %call = call i32 @BN_num_bits(ptr noundef %1)
  %cmp = icmp ugt i32 %call, 10000
  br i1 %cmp, label %if.then, label %if.end

if.then:                                          ; preds = %entry
  call void @ERR_put_error(i32 noundef 5, i32 noundef 0, i32 noundef 102, ptr noundef @.str, i32 noundef 243)
  br label %err

if.end:                                           ; preds = %entry
  %call1 = call ptr @BN_CTX_new()
  store ptr %call1, ptr %ctx, align 8
  %2 = load ptr, ptr %ctx, align 8
  %cmp2 = icmp eq ptr %2, null
  br i1 %cmp2, label %if.then3, label %if.end4

if.then3:                                         ; preds = %if.end
  br label %err

if.end4:                                          ; preds = %if.end
  %3 = load ptr, ptr %dh.addr, align 8
  %priv_key5 = getelementptr inbounds %struct.dh_st, ptr %3, i32 0, i32 3
  %4 = load ptr, ptr %priv_key5, align 8
  %cmp6 = icmp eq ptr %4, null
  br i1 %cmp6, label %if.then7, label %if.else

if.then7:                                         ; preds = %if.end4
  %call8 = call ptr @BN_new()
  store ptr %call8, ptr %priv_key, align 8
  %5 = load ptr, ptr %priv_key, align 8
  %cmp9 = icmp eq ptr %5, null
  br i1 %cmp9, label %if.then10, label %if.end11

if.then10:                                        ; preds = %if.then7
  br label %err

if.end11:                                         ; preds = %if.then7
  store i32 1, ptr %generate_new_key, align 4
  br label %if.end13

if.else:                                          ; preds = %if.end4
  %6 = load ptr, ptr %dh.addr, align 8
  %priv_key12 = getelementptr inbounds %struct.dh_st, ptr %6, i32 0, i32 3
  %7 = load ptr, ptr %priv_key12, align 8
  store ptr %7, ptr %priv_key, align 8
  br label %if.end13

if.end13:                                         ; preds = %if.else, %if.end11
  %8 = load ptr, ptr %dh.addr, align 8
  %pub_key14 = getelementptr inbounds %struct.dh_st, ptr %8, i32 0, i32 2
  %9 = load ptr, ptr %pub_key14, align 8
  %cmp15 = icmp eq ptr %9, null
  br i1 %cmp15, label %if.then16, label %if.else21

if.then16:                                        ; preds = %if.end13
  %call17 = call ptr @BN_new()
  store ptr %call17, ptr %pub_key, align 8
  %10 = load ptr, ptr %pub_key, align 8
  %cmp18 = icmp eq ptr %10, null
  br i1 %cmp18, label %if.then19, label %if.end20

if.then19:                                        ; preds = %if.then16
  br label %err

if.end20:                                         ; preds = %if.then16
  br label %if.end23

if.else21:                                        ; preds = %if.end13
  %11 = load ptr, ptr %dh.addr, align 8
  %pub_key22 = getelementptr inbounds %struct.dh_st, ptr %11, i32 0, i32 2
  %12 = load ptr, ptr %pub_key22, align 8
  store ptr %12, ptr %pub_key, align 8
  br label %if.end23

if.end23:                                         ; preds = %if.else21, %if.end20
  %13 = load ptr, ptr %dh.addr, align 8
  %method_mont_p = getelementptr inbounds %struct.dh_st, ptr %13, i32 0, i32 6
  %14 = load ptr, ptr %dh.addr, align 8
  %method_mont_p_lock = getelementptr inbounds %struct.dh_st, ptr %14, i32 0, i32 5
  %15 = load ptr, ptr %dh.addr, align 8
  %p24 = getelementptr inbounds %struct.dh_st, ptr %15, i32 0, i32 0
  %16 = load ptr, ptr %p24, align 8
  %17 = load ptr, ptr %ctx, align 8
  %call25 = call i32 @BN_MONT_CTX_set_locked(ptr noundef %method_mont_p, ptr noundef %method_mont_p_lock, ptr noundef %16, ptr noundef %17)
  %tobool = icmp ne i32 %call25, 0
  br i1 %tobool, label %if.end27, label %if.then26

if.then26:                                        ; preds = %if.end23
  br label %err

if.end27:                                         ; preds = %if.end23
  %18 = load i32, ptr %generate_new_key, align 4
  %tobool28 = icmp ne i32 %18, 0
  br i1 %tobool28, label %if.then29, label %if.end51

if.then29:                                        ; preds = %if.end27
  %19 = load ptr, ptr %dh.addr, align 8
  %q = getelementptr inbounds %struct.dh_st, ptr %19, i32 0, i32 7
  %20 = load ptr, ptr %q, align 8
  %tobool30 = icmp ne ptr %20, null
  br i1 %tobool30, label %if.then31, label %if.else41

if.then31:                                        ; preds = %if.then29
  br label %do.body

do.body:                                          ; preds = %lor.end, %if.then31
  %21 = load ptr, ptr %priv_key, align 8
  %22 = load ptr, ptr %dh.addr, align 8
  %q32 = getelementptr inbounds %struct.dh_st, ptr %22, i32 0, i32 7
  %23 = load ptr, ptr %q32, align 8
  %call33 = call i32 @BN_rand_range(ptr noundef %21, ptr noundef %23)
  %tobool34 = icmp ne i32 %call33, 0
  br i1 %tobool34, label %if.end36, label %if.then35

if.then35:                                        ; preds = %do.body
  br label %err

if.end36:                                         ; preds = %do.body
  br label %do.cond

do.cond:                                          ; preds = %if.end36
  %24 = load ptr, ptr %priv_key, align 8
  %call37 = call i32 @BN_is_zero(ptr noundef %24)
  %tobool38 = icmp ne i32 %call37, 0
  br i1 %tobool38, label %lor.end, label %lor.rhs

lor.rhs:                                          ; preds = %do.cond
  %25 = load ptr, ptr %priv_key, align 8
  %call39 = call i32 @BN_is_one(ptr noundef %25)
  %tobool40 = icmp ne i32 %call39, 0
  br label %lor.end

lor.end:                                          ; preds = %lor.rhs, %do.cond
  %26 = phi i1 [ true, %do.cond ], [ %tobool40, %lor.rhs ]
  br i1 %26, label %do.body, label %do.end, !llvm.loop !7

do.end:                                           ; preds = %lor.end
  br label %if.end50

if.else41:                                        ; preds = %if.then29
  %27 = load ptr, ptr %dh.addr, align 8
  call void @DH_check_standard_parameters(ptr noundef %27)
  %28 = load ptr, ptr %dh.addr, align 8
  %priv_length = getelementptr inbounds %struct.dh_st, ptr %28, i32 0, i32 4
  %29 = load i32, ptr %priv_length, align 8
  %tobool42 = icmp ne i32 %29, 0
  br i1 %tobool42, label %cond.true, label %cond.false

cond.true:                                        ; preds = %if.else41
  %30 = load ptr, ptr %dh.addr, align 8
  %priv_length43 = getelementptr inbounds %struct.dh_st, ptr %30, i32 0, i32 4
  %31 = load i32, ptr %priv_length43, align 8
  br label %cond.end

cond.false:                                       ; preds = %if.else41
  %32 = load ptr, ptr %dh.addr, align 8
  %p44 = getelementptr inbounds %struct.dh_st, ptr %32, i32 0, i32 0
  %33 = load ptr, ptr %p44, align 8
  %call45 = call i32 @BN_num_bits(ptr noundef %33)
  %sub = sub i32 %call45, 1
  br label %cond.end

cond.end:                                         ; preds = %cond.false, %cond.true
  %cond = phi i32 [ %31, %cond.true ], [ %sub, %cond.false ]
  store i32 %cond, ptr %l, align 4
  %34 = load ptr, ptr %priv_key, align 8
  %35 = load i32, ptr %l, align 4
  %call46 = call i32 @BN_rand(ptr noundef %34, i32 noundef %35, i32 noundef 0, i32 noundef 0)
  %tobool47 = icmp ne i32 %call46, 0
  br i1 %tobool47, label %if.end49, label %if.then48

if.then48:                                        ; preds = %cond.end
  br label %err

if.end49:                                         ; preds = %cond.end
  br label %if.end50

if.end50:                                         ; preds = %if.end49, %do.end
  br label %if.end51

if.end51:                                         ; preds = %if.end50, %if.end27
  %36 = load ptr, ptr %priv_key, align 8
  call void @BN_with_flags(ptr noundef %local_priv, ptr noundef %36, i32 noundef 4)
  %37 = load ptr, ptr %pub_key, align 8
  %38 = load ptr, ptr %dh.addr, align 8
  %g = getelementptr inbounds %struct.dh_st, ptr %38, i32 0, i32 1
  %39 = load ptr, ptr %g, align 8
  %40 = load ptr, ptr %dh.addr, align 8
  %p52 = getelementptr inbounds %struct.dh_st, ptr %40, i32 0, i32 0
  %41 = load ptr, ptr %p52, align 8
  %42 = load ptr, ptr %ctx, align 8
  %43 = load ptr, ptr %dh.addr, align 8
  %method_mont_p53 = getelementptr inbounds %struct.dh_st, ptr %43, i32 0, i32 6
  %44 = load ptr, ptr %method_mont_p53, align 8
  %call54 = call i32 @BN_mod_exp_mont(ptr noundef %37, ptr noundef %39, ptr noundef %local_priv, ptr noundef %41, ptr noundef %42, ptr noundef %44)
  %tobool55 = icmp ne i32 %call54, 0
  br i1 %tobool55, label %if.end57, label %if.then56

if.then56:                                        ; preds = %if.end51
  br label %err

if.end57:                                         ; preds = %if.end51
  %45 = load ptr, ptr %pub_key, align 8
  %46 = load ptr, ptr %dh.addr, align 8
  %pub_key58 = getelementptr inbounds %struct.dh_st, ptr %46, i32 0, i32 2
  store ptr %45, ptr %pub_key58, align 8
  %47 = load ptr, ptr %priv_key, align 8
  %48 = load ptr, ptr %dh.addr, align 8
  %priv_key59 = getelementptr inbounds %struct.dh_st, ptr %48, i32 0, i32 3
  store ptr %47, ptr %priv_key59, align 8
  store i32 1, ptr %ok, align 4
  br label %err

err:                                              ; preds = %if.end57, %if.then56, %if.then48, %if.then35, %if.then26, %if.then19, %if.then10, %if.then3, %if.then
  %49 = load i32, ptr %ok, align 4
  %cmp60 = icmp ne i32 %49, 1
  br i1 %cmp60, label %if.then61, label %if.end62

if.then61:                                        ; preds = %err
  call void @ERR_put_error(i32 noundef 5, i32 noundef 0, i32 noundef 3, ptr noundef @.str, i32 noundef 305)
  br label %if.end62

if.end62:                                         ; preds = %if.then61, %err
  %50 = load ptr, ptr %dh.addr, align 8
  %pub_key63 = getelementptr inbounds %struct.dh_st, ptr %50, i32 0, i32 2
  %51 = load ptr, ptr %pub_key63, align 8
  %cmp64 = icmp eq ptr %51, null
  br i1 %cmp64, label %if.then65, label %if.end66

if.then65:                                        ; preds = %if.end62
  %52 = load ptr, ptr %pub_key, align 8
  call void @BN_free(ptr noundef %52)
  br label %if.end66

if.end66:                                         ; preds = %if.then65, %if.end62
  %53 = load ptr, ptr %dh.addr, align 8
  %priv_key67 = getelementptr inbounds %struct.dh_st, ptr %53, i32 0, i32 3
  %54 = load ptr, ptr %priv_key67, align 8
  %cmp68 = icmp eq ptr %54, null
  br i1 %cmp68, label %if.then69, label %if.end70

if.then69:                                        ; preds = %if.end66
  %55 = load ptr, ptr %priv_key, align 8
  call void @BN_free(ptr noundef %55)
  br label %if.end70

if.end70:                                         ; preds = %if.then69, %if.end66
  %56 = load ptr, ptr %ctx, align 8
  call void @BN_CTX_free(ptr noundef %56)
  %57 = load i32, ptr %ok, align 4
  ret i32 %57
}